
build/kernel.elf:     file format elf64-littleriscv


Disassembly of section .text:

0000000080000000 <_start>:
    80000000:	30401073          	csrw	mie,zero
    80000004:	f14022f3          	csrr	t0,mhartid
    80000008:	02029663          	bnez	t0,80000034 <halt>
    8000000c:	00010117          	auipc	sp,0x10
    80000010:	35410113          	addi	sp,sp,852 # 80010360 <__kernel_end>
    80000014:	00000297          	auipc	t0,0x0
    80000018:	33f28293          	addi	t0,t0,831 # 80000353 <__bss_end>
    8000001c:	00000317          	auipc	t1,0x0
    80000020:	33730313          	addi	t1,t1,823 # 80000353 <__bss_end>

0000000080000024 <clear_bss>:
    80000024:	00628663          	beq	t0,t1,80000030 <bss_done>
    80000028:	0002b023          	sd	zero,0(t0)
    8000002c:	02a1                	addi	t0,t0,8
    8000002e:	bfdd                	j	80000024 <clear_bss>

0000000080000030 <bss_done>:
    80000030:	0d0000ef          	jal	80000100 <kernel_main>

0000000080000034 <halt>:
    80000034:	10500073          	wfi
    80000038:	bff5                	j	80000034 <halt>

000000008000003a <uart_putc>:
    8000003a:	10000737          	lui	a4,0x10000
    8000003e:	0715                	addi	a4,a4,5 # 10000005 <_start-0x6ffffffb>
    80000040:	100006b7          	lui	a3,0x10000
    80000044:	00074783          	lbu	a5,0(a4)
    80000048:	0207f793          	andi	a5,a5,32
    8000004c:	dfe5                	beqz	a5,80000044 <uart_putc+0xa>
    8000004e:	00a68023          	sb	a0,0(a3) # 10000000 <_start-0x70000000>
    80000052:	8082                	ret

0000000080000054 <uart_puts>:
    80000054:	00054783          	lbu	a5,0(a0)
    80000058:	c79d                	beqz	a5,80000086 <uart_puts+0x32>
    8000005a:	10000737          	lui	a4,0x10000
    8000005e:	0715                	addi	a4,a4,5 # 10000005 <_start-0x6ffffffb>
    80000060:	45a9                	li	a1,10
    80000062:	10000637          	lui	a2,0x10000
    80000066:	4835                	li	a6,13
    80000068:	02b78063          	beq	a5,a1,80000088 <uart_puts+0x34>
    8000006c:	00054683          	lbu	a3,0(a0)
    80000070:	0505                	addi	a0,a0,1
    80000072:	00074783          	lbu	a5,0(a4)
    80000076:	0207f793          	andi	a5,a5,32
    8000007a:	dfe5                	beqz	a5,80000072 <uart_puts+0x1e>
    8000007c:	00d60023          	sb	a3,0(a2) # 10000000 <_start-0x70000000>
    80000080:	00054783          	lbu	a5,0(a0)
    80000084:	f3f5                	bnez	a5,80000068 <uart_puts+0x14>
    80000086:	8082                	ret
    80000088:	00074783          	lbu	a5,0(a4)
    8000008c:	0207f793          	andi	a5,a5,32
    80000090:	dfe5                	beqz	a5,80000088 <uart_puts+0x34>
    80000092:	01060023          	sb	a6,0(a2)
    80000096:	bfd9                	j	8000006c <uart_puts+0x18>

0000000080000098 <uart_puthex>:
    80000098:	00000797          	auipc	a5,0x0
    8000009c:	19078793          	addi	a5,a5,400 # 80000228 <kernel_main+0x128>
    800000a0:	6394                	ld	a3,0(a5)
    800000a2:	6798                	ld	a4,8(a5)
    800000a4:	00000797          	auipc	a5,0x0
    800000a8:	1947c783          	lbu	a5,404(a5) # 80000238 <kernel_main+0x138>
    800000ac:	7179                	addi	sp,sp,-48
    800000ae:	f022                	sd	s0,32(sp)
    800000b0:	842a                	mv	s0,a0
    800000b2:	00000517          	auipc	a0,0x0
    800000b6:	16e50513          	addi	a0,a0,366 # 80000220 <kernel_main+0x120>
    800000ba:	e436                	sd	a3,8(sp)
    800000bc:	e83a                	sd	a4,16(sp)
    800000be:	f406                	sd	ra,40(sp)
    800000c0:	00f10c23          	sb	a5,24(sp)
    800000c4:	f91ff0ef          	jal	80000054 <uart_puts>
    800000c8:	10000737          	lui	a4,0x10000
    800000cc:	0715                	addi	a4,a4,5 # 10000005 <_start-0x6ffffffb>
    800000ce:	03c00693          	li	a3,60
    800000d2:	10000537          	lui	a0,0x10000
    800000d6:	55f1                	li	a1,-4
    800000d8:	00d457b3          	srl	a5,s0,a3
    800000dc:	8bbd                	andi	a5,a5,15
    800000de:	978a                	add	a5,a5,sp
    800000e0:	0087c603          	lbu	a2,8(a5)
    800000e4:	00074783          	lbu	a5,0(a4)
    800000e8:	0207f793          	andi	a5,a5,32
    800000ec:	dfe5                	beqz	a5,800000e4 <uart_puthex+0x4c>
    800000ee:	00c50023          	sb	a2,0(a0) # 10000000 <_start-0x70000000>
    800000f2:	36f1                	addiw	a3,a3,-4
    800000f4:	feb692e3          	bne	a3,a1,800000d8 <uart_puthex+0x40>
    800000f8:	70a2                	ld	ra,40(sp)
    800000fa:	7402                	ld	s0,32(sp)
    800000fc:	6145                	addi	sp,sp,48
    800000fe:	8082                	ret

0000000080000100 <kernel_main>:
    80000100:	1141                	addi	sp,sp,-16
    80000102:	00000517          	auipc	a0,0x0
    80000106:	13e50513          	addi	a0,a0,318 # 80000240 <kernel_main+0x140>
    8000010a:	e406                	sd	ra,8(sp)
    8000010c:	f49ff0ef          	jal	80000054 <uart_puts>
    80000110:	00000517          	auipc	a0,0x0
    80000114:	13850513          	addi	a0,a0,312 # 80000248 <kernel_main+0x148>
    80000118:	f3dff0ef          	jal	80000054 <uart_puts>
    8000011c:	00000517          	auipc	a0,0x0
    80000120:	15450513          	addi	a0,a0,340 # 80000270 <kernel_main+0x170>
    80000124:	f31ff0ef          	jal	80000054 <uart_puts>
    80000128:	00000517          	auipc	a0,0x0
    8000012c:	16850513          	addi	a0,a0,360 # 80000290 <kernel_main+0x190>
    80000130:	f25ff0ef          	jal	80000054 <uart_puts>
    80000134:	00000517          	auipc	a0,0x0
    80000138:	18450513          	addi	a0,a0,388 # 800002b8 <kernel_main+0x1b8>
    8000013c:	f19ff0ef          	jal	80000054 <uart_puts>
    80000140:	00000517          	auipc	a0,0x0
    80000144:	19050513          	addi	a0,a0,400 # 800002d0 <kernel_main+0x1d0>
    80000148:	f0dff0ef          	jal	80000054 <uart_puts>
    8000014c:	f1402573          	csrr	a0,mhartid
    80000150:	f49ff0ef          	jal	80000098 <uart_puthex>
    80000154:	10000737          	lui	a4,0x10000
    80000158:	0715                	addi	a4,a4,5 # 10000005 <_start-0x6ffffffb>
    8000015a:	100006b7          	lui	a3,0x10000
    8000015e:	00074783          	lbu	a5,0(a4)
    80000162:	0207f793          	andi	a5,a5,32
    80000166:	dfe5                	beqz	a5,8000015e <kernel_main+0x5e>
    80000168:	47a9                	li	a5,10
    8000016a:	00f68023          	sb	a5,0(a3) # 10000000 <_start-0x70000000>
    8000016e:	00000517          	auipc	a0,0x0
    80000172:	17250513          	addi	a0,a0,370 # 800002e0 <kernel_main+0x1e0>
    80000176:	edfff0ef          	jal	80000054 <uart_puts>
    8000017a:	30002573          	csrr	a0,mstatus
    8000017e:	f1bff0ef          	jal	80000098 <uart_puthex>
    80000182:	10000737          	lui	a4,0x10000
    80000186:	0715                	addi	a4,a4,5 # 10000005 <_start-0x6ffffffb>
    80000188:	100006b7          	lui	a3,0x10000
    8000018c:	00074783          	lbu	a5,0(a4)
    80000190:	0207f793          	andi	a5,a5,32
    80000194:	dfe5                	beqz	a5,8000018c <kernel_main+0x8c>
    80000196:	47a9                	li	a5,10
    80000198:	00f68023          	sb	a5,0(a3) # 10000000 <_start-0x70000000>
    8000019c:	00000517          	auipc	a0,0x0
    800001a0:	15c50513          	addi	a0,a0,348 # 800002f8 <kernel_main+0x1f8>
    800001a4:	eb1ff0ef          	jal	80000054 <uart_puts>
    800001a8:	10000537          	lui	a0,0x10000
    800001ac:	eedff0ef          	jal	80000098 <uart_puthex>
    800001b0:	10000737          	lui	a4,0x10000
    800001b4:	0715                	addi	a4,a4,5 # 10000005 <_start-0x6ffffffb>
    800001b6:	100006b7          	lui	a3,0x10000
    800001ba:	00074783          	lbu	a5,0(a4)
    800001be:	0207f793          	andi	a5,a5,32
    800001c2:	dfe5                	beqz	a5,800001ba <kernel_main+0xba>
    800001c4:	47a9                	li	a5,10
    800001c6:	00f68023          	sb	a5,0(a3) # 10000000 <_start-0x70000000>
    800001ca:	00000517          	auipc	a0,0x0
    800001ce:	13e50513          	addi	a0,a0,318 # 80000308 <kernel_main+0x208>
    800001d2:	e83ff0ef          	jal	80000054 <uart_puts>
    800001d6:	4505                	li	a0,1
    800001d8:	057e                	slli	a0,a0,0x1f
    800001da:	ebfff0ef          	jal	80000098 <uart_puthex>
    800001de:	10000737          	lui	a4,0x10000
    800001e2:	0715                	addi	a4,a4,5 # 10000005 <_start-0x6ffffffb>
    800001e4:	100006b7          	lui	a3,0x10000
    800001e8:	00074783          	lbu	a5,0(a4)
    800001ec:	0207f793          	andi	a5,a5,32
    800001f0:	dfe5                	beqz	a5,800001e8 <kernel_main+0xe8>
    800001f2:	47a9                	li	a5,10
    800001f4:	00000517          	auipc	a0,0x0
    800001f8:	12450513          	addi	a0,a0,292 # 80000318 <kernel_main+0x218>
    800001fc:	00f68023          	sb	a5,0(a3) # 10000000 <_start-0x70000000>
    80000200:	e55ff0ef          	jal	80000054 <uart_puts>
    80000204:	00000517          	auipc	a0,0x0
    80000208:	13450513          	addi	a0,a0,308 # 80000338 <kernel_main+0x238>
    8000020c:	e49ff0ef          	jal	80000054 <uart_puts>
    80000210:	10500073          	wfi
    80000214:	10500073          	wfi
    80000218:	bfe5                	j	80000210 <kernel_main+0x110>
